target datalayout = "e-m:e-p270:32:32-p271:32:32-p272:64:64-i64:64-i128:128-f80:128-n8:16:32:64-S128"
target triple = "x86_64-pc-linux-gnu"

@.str.1 = private unnamed_addr constant [101 x i8] c"generated/home/dtcxzyw/WorkSpace/Projects/compilers/llvm-opt-benchmark/bench/hdf5/hdf5/src/H5Plapl.c\00", align 1
@H5E_PLIST_g = external global i64, align 8
@__func__.H5P__lacc_elink_fapl_del = private unnamed_addr constant [25 x i8] c"H5P__lacc_elink_fapl_del\00", align 1
@H5E_CANTRELEASE_g = external global i64, align 8
@.str.31 = private unnamed_addr constant [49 x i8] c"unable to close ID for file access property list\00", align 1

; Function Attrs: nounwind uwtable
define internal i32 @H5P__lacc_elink_fapl_del(i64 noundef %0, ptr noundef %1, i64 noundef %2, ptr noundef %3) #0 {
  %5 = alloca i64, align 8
  %6 = alloca ptr, align 8
  %7 = alloca i64, align 8
  %8 = alloca ptr, align 8
  %9 = alloca i64, align 8
  %10 = alloca i32, align 4
  %11 = alloca i8, align 1
  store i64 %0, ptr %5, align 8
  store ptr %1, ptr %6, align 8
  store i64 %2, ptr %7, align 8
  store ptr %3, ptr %8, align 8
  store i32 0, ptr %10, align 4
  store i8 0, ptr %11, align 1
  %12 = load ptr, ptr %8, align 8
  %13 = load i64, ptr %12, align 8
  store i64 %13, ptr %9, align 8
  %14 = load i64, ptr %9, align 8
  %15 = icmp ne i64 %14, 0
  br i1 %15, label %16, label %35

16:                                               ; preds = %4
  %17 = load i64, ptr %9, align 8
  %18 = call i32 @H5I_dec_ref(i64 noundef %17)
  %19 = icmp slt i32 %18, 0
  br i1 %19, label %20, label %35

20:                                               ; preds = %16
  br label %21

21:                                               ; preds = %20
  br label %22

22:                                               ; preds = %21
  br label %23

23:                                               ; preds = %22
  %24 = load i64, ptr @H5E_PLIST_g, align 8
  %25 = load i64, ptr @H5E_CANTRELEASE_g, align 8
  %26 = call i32 (ptr, ptr, i32, i64, i64, ptr, ...) @H5E_printf_stack(ptr noundef @.str.1, ptr noundef @__func__.H5P__lacc_elink_fapl_del, i32 noundef 461, i64 noundef %24, i64 noundef %25, ptr noundef @.str.31)
  br label %27

27:                                               ; preds = %23
  store i8 1, ptr %11, align 1
  %28 = load i8, ptr %11, align 1
  %29 = trunc i8 %28 to i1
  %30 = zext i1 %29 to i8
  store i8 %30, ptr %11, align 1
  br label %31

31:                                               ; preds = %27
  br label %32

32:                                               ; preds = %31
  store i32 -1, ptr %10, align 4
  br label %36

33:                                               ; No predecessors!
  br label %34

34:                                               ; preds = %33
  br label %35

35:                                               ; preds = %34, %16, %4
  br label %36

36:                                               ; preds = %35, %32
  %37 = load i32, ptr %10, align 4
  ret i32 %37
}