; Function Attrs: nounwind uwtable
define internal range(i32 -1, 1) i32 @H5P__lacc_elink_fapl_del(i64 %0, ptr readnone captures(none) %1, i64 %2, ptr noundef readonly captures(none) %3) #0 {
  %5 = load i64, ptr %3, align 8
  %.not = icmp eq i64 %5, 0
  br i1 %.not, label %13, label %6

6:                                                ; preds = %4
  %7 = tail call i32 @H5I_dec_ref(i64 noundef %5) #8
  %8 = icmp slt i32 %7, 0
  br i1 %8, label %9, label %13

9:                                                ; preds = %6
  %10 = load i64, ptr @H5E_PLIST_g, align 8
  %11 = load i64, ptr @H5E_CANTRELEASE_g, align 8
  %12 = tail call i32 (ptr, ptr, i32, i64, i64, ptr, ...) @H5E_printf_stack(ptr noundef nonnull @.str.1, ptr noundef nonnull @__func__.H5P__lacc_elink_fapl_del, i32 noundef 461, i64 noundef %10, i64 noundef %11, ptr noundef nonnull @.str.31) #8
  br label %13

13:                                               ; preds = %4, %6, %9
  %.0 = phi i32 [ -1, %9 ], [ 0, %6 ], [ 0, %4 ]
  ret i32 %.0
}